; Function Attrs: mustprogress uwtable
define noundef i64 @_ZNK5faiss13InvertedLists13get_single_idEmm(ptr noundef nonnull align 8 dereferenceable(25) %0, i64 noundef %1, i64 noundef %2) unnamed_addr #2 align 2 {
  %4 = load ptr, ptr %0, align 8, !tbaa !4
  %5 = getelementptr inbounds nuw i8, ptr %4, i64 32
  %6 = load ptr, ptr %5, align 8
  %7 = tail call noundef ptr %6(ptr noundef nonnull align 8 dereferenceable(25) %0, i64 noundef %1)
  %8 = getelementptr inbounds nuw i64, ptr %7, i64 %2
  %9 = load i64, ptr %8, align 8, !tbaa !7
  %10 = load ptr, ptr %0, align 8, !tbaa !4
  %11 = getelementptr inbounds nuw i8, ptr %10, i64 48
  %12 = load ptr, ptr %11, align 8
  tail call void %12(ptr noundef nonnull align 8 dereferenceable(25) %0, i64 noundef %1, ptr noundef %7)
  ret i64 %9
}